((lp0
S'CLASS0'
p1
aVjavax.crypto.Cipher.init(int,java.security.Key)
p2
aVandroid.bluetooth.BluetoothSocket.close()
p3
aVandroid.app.AlertDialog.Builder.setIcon(android.graphics.drawable.Drawable)
p4
aVandroid.hardware.Camera.open()
p5
aVjavax.crypto.Cipher.getAlgorithm()
p6
aVjava.io.BufferedWriter.BufferedWriter(java.io.Writer)
p7
aVandroid.hardware.Camera.setAutoFocusMoveCallback(android.hardware.Camera.AutoFocusMoveCallback)
p8
aVandroid.app.AlertDialog.Builder.setTitle(java.lang.CharSequence)
p9
aVandroid.bluetooth.BluetoothSocket.connect()
p10
aVandroid.bluetooth.BluetoothSocket.getInputStream()
p11
aVandroid.hardware.Camera.setPreviewDisplay(android.view.SurfaceHolder)
p12
aVandroid.hardware.Camera.enableShutterSound(boolean)
p13
aVjava.lang.Throwable.toString()
p14
aVjavax.crypto.Cipher.update(byte[],int,int,byte[])
p15
aVjava.io.PrintWriter.println()
p16
aVjava.io.PrintWriter.PrintWriter(java.io.File,java.lang.String)
p17
aVjava.io.BufferedWriter.write(int)
p18
aVandroid.hardware.Camera.getCameraInfo(int,android.hardware.Camera.CameraInfo)
p19
aVjava.io.PrintWriter.println(char[])
p20
aVjava.io.InputStreamReader.ready()
p21
aVandroid.hardware.Camera.startFaceDetection()
p22
aVandroid.bluetooth.BluetoothSocket.getRemoteDevice()
p23
aVjava.io.InputStreamReader.close()
p24
aVandroid.app.AlertDialog.Builder.setNeutralButton(java.lang.CharSequence,android.content.DialogInterface.OnClickListener)
p25
aVjava.io.BufferedReader.close()
p26
aVandroid.app.AlertDialog.Builder.setInverseBackgroundForced(boolean)
p27
aVandroid.app.AlertDialog.Builder.Builder(android.content.Context)
p28
aVjavax.crypto.CipherInputStream.CipherInputStream(java.io.InputStream,javax.crypto.Cipher)
p29
aVandroid.hardware.Camera.setZoomChangeListener(android.hardware.Camera.OnZoomChangeListener)
p30
aVjava.io.BufferedReader.reset()
p31
aVjava.io.BufferedWriter.flush()
p32
aVjavax.crypto.CipherInputStream.read(byte[],int,int)
p33
aVjavax.crypto.CipherOutputStream.write(byte[])
p34
aVandroid.bluetooth.BluetoothSocket.getOutputStream()
p35
aVjava.io.BufferedWriter.newLine()
p36
aVjavax.crypto.Cipher.getInstance(java.lang.String,java.lang.String)
p37
aVandroid.hardware.Camera.setPreviewCallback(android.hardware.Camera.PreviewCallback)
p38
aVandroid.app.AlertDialog.Builder.create()
p39
aVandroid.app.AlertDialog.Builder.setMultiChoiceItems(android.database.Cursor,java.lang.String,java.lang.String,android.content.DialogInterface.OnMultiChoiceClickListener)
p40
aVjavax.crypto.Cipher.init(int,java.security.Key,java.security.AlgorithmParameters)
p41
aVandroid.app.AlertDialog.Builder.Builder(android.content.Context,int)
p42
aVjava.lang.Throwable.getLocalizedMessage()
p43
aVandroid.app.AlertDialog.Builder.setOnKeyListener(android.content.DialogInterface.OnKeyListener)
p44
aVjavax.crypto.Cipher.doFinal()
p45
aVandroid.app.AlertDialog.Builder.setMessage(int)
p46
aVandroid.app.AlertDialog.Builder.setMultiChoiceItems(java.lang.CharSequence[],boolean[],android.content.DialogInterface.OnMultiChoiceClickListener)
p47
aVjavax.crypto.CipherInputStream.read(byte[])
p48
aVjava.io.BufferedReader.BufferedReader(java.io.Reader,int)
p49
aVandroid.bluetooth.BluetoothSocket.isConnected()
p50
aVandroid.app.AlertDialog.Builder.setCustomTitle(android.view.View)
p51
aVjavax.crypto.Cipher.getProvider()
p52
aVjava.io.InputStreamReader.read(char[],int,int)
p53
aVjavax.crypto.Cipher.unwrap(byte[],java.lang.String,int)
p54
aVandroid.app.AlertDialog.Builder.setSingleChoiceItems(int,int,android.content.DialogInterface.OnClickListener)
p55
aVjava.io.PrintWriter.PrintWriter(java.io.OutputStream)
p56
aVjavax.crypto.Cipher.update(byte[],int,int)
p57
aVjava.io.InputStreamReader.getEncoding()
p58
aVjava.io.PrintWriter.print(java.lang.String)
p59
aVjava.io.InputStreamReader.InputStreamReader(java.io.InputStream,java.nio.charset.Charset)
p60
aVandroid.app.AlertDialog.Builder.setView(android.view.View)
p61
aVjavax.crypto.Cipher.doFinal(byte[],int)
p62
aVandroid.hardware.Camera.getNumberOfCameras()
p63
aVjavax.crypto.Cipher.update(byte[],int,int,byte[],int)
p64
aVjava.io.BufferedReader.mark(int)
p65
aVjavax.crypto.Cipher.getInstance(java.lang.String,java.security.Provider)
p66
aVandroid.hardware.Camera.stopFaceDetection()
p67
aVjava.io.PrintWriter.println(java.lang.String)
p68
aVjavax.crypto.Cipher.getIV()
p69
aVjavax.crypto.Cipher.init(int,java.security.Key,java.security.spec.AlgorithmParameterSpec)
p70
aVjava.io.FileReader.FileReader(java.io.File)
p71
aVandroid.hardware.Camera.release()
p72
aVandroid.app.AlertDialog.Builder.setMessage(java.lang.CharSequence)
p73
aVandroid.hardware.Camera.lock()
p74
aVjava.io.PrintWriter.print(int)
p75
aVandroid.app.AlertDialog.Builder.setItems(int,android.content.DialogInterface.OnClickListener)
p76
aVjava.io.PrintWriter.PrintWriter(java.lang.String)
p77
aVjava.io.BufferedReader.read()
p78
aVandroid.hardware.Camera.setOneShotPreviewCallback(android.hardware.Camera.PreviewCallback)
p79
aVjavax.crypto.Cipher.getInstance(java.lang.String)
p80
aVjava.io.BufferedWriter.BufferedWriter(java.io.Writer,int)
p81
aVjavax.crypto.Cipher.doFinal(byte[],int,int,byte[],int)
p82
aVjavax.crypto.CipherInputStream.CipherInputStream(java.io.InputStream)
p83
aVandroid.app.AlertDialog.Builder.setOnCancelListener(android.content.DialogInterface.OnCancelListener)
p84
aVandroid.hardware.Camera.takePicture(android.hardware.Camera.ShutterCallback,android.hardware.Camera.PictureCallback,android.hardware.Camera.PictureCallback,android.hardware.Camera.PictureCallback)
p85
aVjava.io.PrintWriter.flush()
p86
aVjavax.crypto.Cipher.init(int,java.security.Key,java.security.SecureRandom)
p87
aVjava.lang.Throwable.printStackTrace(java.io.PrintStream)
p88
aVandroid.app.AlertDialog.Builder.setNegativeButton(java.lang.CharSequence,android.content.DialogInterface.OnClickListener)
p89
aVjava.io.BufferedReader.BufferedReader(java.io.Reader)
p90
aVandroid.app.AlertDialog.Builder.setNegativeButton(int,android.content.DialogInterface.OnClickListener)
p91
aVjava.lang.Throwable.printStackTrace()
p92
aVandroid.hardware.Camera.autoFocus(android.hardware.Camera.AutoFocusCallback)
p93
aVandroid.app.AlertDialog.Builder.setPositiveButton(java.lang.CharSequence,android.content.DialogInterface.OnClickListener)
p94
aVjava.io.FileWriter.FileWriter(java.io.File)
p95
aVandroid.hardware.Camera.takePicture(android.hardware.Camera.ShutterCallback,android.hardware.Camera.PictureCallback,android.hardware.Camera.PictureCallback)
p96
aVjavax.crypto.Cipher.wrap(java.security.Key)
p97
aVjava.io.FileWriter.FileWriter(java.lang.String)
p98
aVandroid.app.AlertDialog.Builder.setIcon(int)
p99
aVandroid.hardware.Camera.reconnect()
p100
aVjava.io.BufferedReader.skip(long)
p101
aVjava.io.PrintWriter.write(int)
p102
aVjavax.crypto.CipherInputStream.read()
p103
aVandroid.app.AlertDialog.Builder.setSingleChoiceItems(java.lang.CharSequence[],int,android.content.DialogInterface.OnClickListener)
p104
aVandroid.app.AlertDialog.Builder.setAdapter(android.widget.ListAdapter,android.content.DialogInterface.OnClickListener)
p105
aVjavax.crypto.CipherOutputStream.CipherOutputStream(java.io.OutputStream,javax.crypto.Cipher)
p106
aVandroid.hardware.Camera.unlock()
p107
aVjava.io.BufferedReader.read(char[],int,int)
p108
aVjavax.crypto.Cipher.doFinal(byte[])
p109
aVjava.lang.Throwable.getStackTrace()
p110
aVjava.io.PrintWriter.PrintWriter(java.io.Writer,boolean)
p111
aVjavax.crypto.CipherOutputStream.CipherOutputStream(java.io.OutputStream)
p112
aVjavax.crypto.Cipher.init(int,java.security.Key,java.security.AlgorithmParameters,java.security.SecureRandom)
p113
aVandroid.hardware.Camera.startPreview()
p114
aVandroid.app.AlertDialog.Builder.setOnDismissListener(android.content.DialogInterface.OnDismissListener)
p115
aVandroid.app.AlertDialog.Builder.setIconAttribute(int)
p116
aVjava.lang.Throwable.printStackTrace(java.io.PrintWriter)
p117
aVjava.io.PrintWriter.PrintWriter(java.io.OutputStream,boolean)
p118
aVjava.io.BufferedReader.ready()
p119
aVjava.io.PrintWriter.PrintWriter(java.io.File)
p120
aVjava.io.PrintWriter.println(java.lang.Object)
p121
aVandroid.hardware.Camera.cancelAutoFocus()
p122
aVjavax.crypto.CipherOutputStream.close()
p123
aVandroid.app.AlertDialog.Builder.setPositiveButton(int,android.content.DialogInterface.OnClickListener)
p124
aVjavax.crypto.Cipher.getBlockSize()
p125
aVandroid.hardware.Camera.startSmoothZoom(int)
p126
aVjavax.crypto.Cipher.getOutputSize(int)
p127
aVandroid.hardware.Camera.setPreviewCallbackWithBuffer(android.hardware.Camera.PreviewCallback)
p128
aVandroid.app.AlertDialog.Builder.setItems(java.lang.CharSequence[],android.content.DialogInterface.OnClickListener)
p129
aVandroid.hardware.Camera.setErrorCallback(android.hardware.Camera.ErrorCallback)
p130
aVjavax.crypto.Cipher.getParameters()
p131
aVjava.io.InputStreamReader.InputStreamReader(java.io.InputStream)
p132
aVjavax.crypto.CipherOutputStream.flush()
p133
aVjava.io.PrintWriter.println(boolean)
p134
aVjava.io.InputStreamReader.InputStreamReader(java.io.InputStream,java.lang.String)
p135
aVandroid.app.AlertDialog.Builder.setTitle(int)
p136
aVjavax.crypto.Cipher.doFinal(byte[],int,int,byte[])
p137
aVandroid.app.AlertDialog.Builder.setSingleChoiceItems(android.widget.ListAdapter,int,android.content.DialogInterface.OnClickListener)
p138
aVjavax.crypto.CipherOutputStream.write(byte[],int,int)
p139
aVjava.io.PrintWriter.printf(java.lang.String,java.lang.Object[])
p140
aVandroid.hardware.Camera.setDisplayOrientation(int)
p141
aVjava.io.PrintWriter.print(char[])
p142
aVjava.io.InputStreamReader.read()
p143
aVjava.io.PrintWriter.write(java.lang.String)
p144
aVjava.io.PrintWriter.checkError()
p145
aVandroid.app.AlertDialog.Builder.setNeutralButton(int,android.content.DialogInterface.OnClickListener)
p146
aVjava.lang.Throwable.getCause()
p147
aVjavax.crypto.CipherInputStream.close()
p148
aVandroid.hardware.Camera.stopSmoothZoom()
p149
aVandroid.hardware.Camera.addCallbackBuffer(byte[])
p150
aVandroid.hardware.Camera.open(int)
p151
aVandroid.hardware.Camera.setPreviewTexture(android.graphics.SurfaceTexture)
p152
aVjava.lang.Throwable.getMessage()
p153
aVjava.io.BufferedWriter.write(char[],int,int)
p154
aVjava.io.PrintWriter.close()
p155
aVandroid.app.AlertDialog.Builder.show()
p156
aVjava.io.FileReader.FileReader(java.lang.String)
p157
aVjava.io.FileWriter.FileWriter(java.io.File,boolean)
p158
aVjavax.crypto.Cipher.doFinal(byte[],int,int)
p159
aVandroid.app.AlertDialog.Builder.setCancelable(boolean)
p160
aVandroid.hardware.Camera.getParameters()
p161
aVandroid.hardware.Camera.setParameters(android.hardware.Camera.Parameters)
p162
aVjava.io.FileWriter.FileWriter(java.lang.String,boolean)
p163
aVandroid.hardware.Camera.stopPreview()
p164
aVjava.io.BufferedWriter.write(java.lang.String,int,int)
p165
aVjava.io.PrintWriter.write(char[])
p166
aVandroid.app.AlertDialog.Builder.setMultiChoiceItems(int,boolean[],android.content.DialogInterface.OnMultiChoiceClickListener)
p167
aVjava.io.BufferedWriter.close()
p168
aVjava.io.BufferedReader.readLine()
p169
aVjavax.crypto.Cipher.update(byte[])
p170
aVjava.io.BufferedReader.markSupported()
p171
aVjava.io.PrintWriter.PrintWriter(java.io.Writer)
p172
aVandroid.hardware.Camera.setFaceDetectionListener(android.hardware.Camera.FaceDetectionListener)
p173
a(dp174
g2
I1
sg3
I2
sg4
I3
sg5
I4
sg6
I5
sg7
I6
sg8
I7
sg9
I8
sg10
I9
sg11
I10
sg12
I11
sg13
I12
sg14
I13
sg15
I14
sg16
I15
sg17
I16
sg18
I17
sg19
I18
sg144
I143
sg20
I19
sg21
I20
sg22
I21
sg23
I22
sg24
I23
sg25
I24
sg26
I25
sg27
I26
sg28
I27
sg29
I28
sg30
I29
sg31
I30
sg32
I31
sg33
I32
sg35
I34
sg93
I92
sg36
I35
sg37
I36
sg38
I37
sg39
I38
sg40
I39
sg41
I40
sg42
I41
sg150
I149
sg44
I43
sg82
I81
sg51
I50
sg47
I46
sg49
I48
sg50
I49
sg52
I51
sg53
I52
sg54
I53
sg55
I54
sg56
I55
sg57
I56
sg58
I57
sg59
I58
sg105
I104
sg34
I33
sg61
I60
sg62
I61
sg63
I62
sg64
I63
sg65
I64
sg66
I65
sg68
I67
sg69
I68
sg70
I69
sg71
I70
sg72
I71
sg73
I72
sg131
I130
sg102
I101
sg76
I75
sg78
I77
sg157
I156
sg80
I79
sg158
I157
sg45
I44
sg83
I82
sg84
I83
sg85
I84
sg86
I85
sg159
I158
sg88
I87
sg89
I88
sg90
I89
sg46
I45
sg48
I47
sg94
I93
sg95
I94
sg96
I95
sg98
I97
sg99
I98
sg100
I99
sg101
I100
sg1
I0
sg75
I74
sg161
I160
sg103
I102
sg106
I105
sg97
I96
sg104
I103
sg77
I76
sg108
I107
sg109
I108
sg110
I109
sg146
I145
sg111
I110
sg112
I111
sg113
I112
sg114
I113
sg115
I114
sg116
I115
sg117
I116
sg118
I117
sg119
I118
sg120
I119
sg121
I120
sg122
I121
sg123
I122
sg124
I123
sg125
I124
sg126
I125
sg127
I126
sg128
I127
sg129
I128
sg130
I129
sg74
I73
sg132
I131
sg133
I132
sg134
I133
sg135
I134
sg136
I135
sg137
I136
sg138
I137
sg139
I138
sg140
I139
sg141
I140
sg142
I141
sg143
I142
sg67
I66
sg145
I144
sg60
I59
sg147
I146
sg148
I147
sg149
I148
sg43
I42
sg151
I150
sg152
I151
sg153
I152
sg162
I161
sg154
I153
sg91
I90
sg156
I155
sg79
I78
sg81
I80
sg87
I86
sg160
I159
sg155
I154
sg92
I91
sg163
I162
sg164
I163
sg165
I164
sg166
I165
sg167
I166
sg168
I167
sg169
I168
sg170
I169
sg107
I106
sg171
I170
sg172
I171
sg173
I172
s(lp175
g1
aVshot
p176
aVshow
p177
aVskip
p178
aVmove
p179
aVfocus
p180
aVreconnect
p181
aVlocalized
p182
aVinverse
p183
aVparameters
p184
aVtitle
p185
aVwriter
p186
aVtexture
p187
aVto
p188
aVadd
p189
aVinput
p190
aVdo
p191
aVsupported
p192
aVstring
p193
aVget
p194
aVread
p195
aVauto
p196
aVprovider
p197
aVstop
p198
aVchoice
p199
aVlistener
p200
aVbackground
p201
aVbutton
p202
aVzoom
p203
aVshutter
p204
aVprintln
p205
aVoutput
p206
aVview
p207
aVset
p208
aVbluetooth
p209
aVdetection
p210
aVwrap
p211
aVunlock
p212
aVconnect
p213
aVflush
p214
aVclose
p215
aVcameras
p216
aVreader
p217
aVprint
p218
aVnew
p219
aVcause
p220
aVerror
p221
aVrelease
p222
aVkey
p223
aVchange
p224
aVon
p225
aVsocket
p226
aVitems
p227
aVadapter
p228
aVblock
p229
aVbuffered
p230
aVencoding
p231
aVnumber
p232
aVone
p233
aVcancelable
p234
aVprintf
p235
aVcancel
p236
aVmessage
p237
aVcustom
p238
aVopen
p239
aVsize
p240
aVpositive
p241
aVcreate
p242
aVnegative
p243
aVmark
p244
aVstart
p245
aVcamera
p246
aVlock
p247
aVpreview
p248
aVfinal
p249
aVenable
p250
aVunwrap
p251
aVsound
p252
aVdismiss
p253
aVneutral
p254
aVline
p255
aVwith
p256
aVreset
p257
aVmulti
p258
aVinit
p259
aVsmooth
p260
aVinfo
p261
aVof
p262
aVdisplay
p263
aVorientation
p264
aVstream
p265
aVattribute
p266
aVis
p267
aViv
p268
aVsingle
p269
aVfile
p270
aVthrowable
p271
aVready
p272
aVcheck
p273
aVforced
p274
aVwrite
p275
aVinstance
p276
aVtake
p277
aVpicture
p278
aVtrace
p279
aVbuffer
p280
aVupdate
p281
aVcipher
p282
aVconnected
p283
aVdevice
p284
aVstack
p285
aVicon
p286
aVremote
p287
aValgorithm
p288
aVbuilder
p289
aVface
p290
aVcallback
p291
a(dp292
g176
I1
sg177
I2
sg178
I3
sg179
I4
sg180
I5
sg181
I6
sg182
I7
sg183
I8
sg184
I9
sg185
I10
sg186
I11
sg187
I12
sg188
I13
sg189
I14
sg190
I15
sg191
I16
sg192
I17
sg193
I18
sg194
I19
sg195
I20
sg196
I21
sg217
I42
sg198
I23
sg199
I24
sg200
I25
sg201
I26
sg202
I27
sg203
I28
sg204
I29
sg222
I47
sg206
I31
sg207
I32
sg257
I82
sg208
I33
sg209
I34
sg210
I35
sg211
I36
sg212
I37
sg213
I38
sg214
I39
sg215
I40
sg216
I41
sg197
I22
sg218
I43
sg219
I44
sg220
I45
sg262
I87
sg205
I30
sg223
I48
sg224
I49
sg225
I50
sg226
I51
sg227
I52
sg228
I53
sg229
I54
sg230
I55
sg231
I56
sg232
I57
sg233
I58
sg234
I59
sg235
I60
sg236
I61
sg237
I62
sg238
I63
sg239
I64
sg1
I0
sg240
I65
sg241
I66
sg242
I67
sg243
I68
sg244
I69
sg245
I70
sg246
I71
sg266
I91
sg248
I73
sg249
I74
sg250
I75
sg251
I76
sg253
I78
sg254
I79
sg255
I80
sg256
I81
sg252
I77
sg258
I83
sg259
I84
sg260
I85
sg261
I86
sg221
I46
sg263
I88
sg264
I89
sg265
I90
sg247
I72
sg267
I92
sg268
I93
sg269
I94
sg270
I95
sg271
I96
sg272
I97
sg273
I98
sg274
I99
sg275
I100
sg276
I101
sg277
I102
sg278
I103
sg279
I104
sg280
I105
sg281
I106
sg282
I107
sg283
I108
sg284
I109
sg285
I110
sg286
I111
sg287
I112
sg288
I113
sg289
I114
sg290
I115
sg291
I116
s(lp293
g1
aVjavax.crypto.Cipher.init(int,java.security.Key)
p294
aVandroid.bluetooth.BluetoothSocket.close()
p295
aVandroid.app.AlertDialog.Builder.setIcon(android.graphics.drawable.Drawable)
p296
aVandroid.hardware.Camera.open()
p297
aVjavax.crypto.Cipher.getAlgorithm()
p298
aVjava.io.BufferedWriter.BufferedWriter(java.io.Writer)
p299
aVandroid.hardware.Camera.setAutoFocusMoveCallback(android.hardware.Camera.AutoFocusMoveCallback)
p300
aVandroid.app.AlertDialog.Builder.setTitle(java.lang.CharSequence)
p301
aVandroid.bluetooth.BluetoothSocket.connect()
p302
aVandroid.bluetooth.BluetoothSocket.getInputStream()
p303
aVandroid.hardware.Camera.setPreviewDisplay(android.view.SurfaceHolder)
p304
aVandroid.hardware.Camera.enableShutterSound(boolean)
p305
aVjava.lang.Throwable.toString()
p306
aVjavax.crypto.Cipher.update(byte[],int,int,byte[])
p307
aVjava.io.PrintWriter.println()
p308
aVjava.io.PrintWriter.PrintWriter(java.io.File,java.lang.String)
p309
aVjava.io.BufferedWriter.write(int)
p310
aVandroid.hardware.Camera.getCameraInfo(int,android.hardware.Camera.CameraInfo)
p311
aVjava.io.PrintWriter.println(char[])
p312
aVjava.io.InputStreamReader.ready()
p313
aS'DBranch'
p314
aVandroid.bluetooth.BluetoothSocket.getRemoteDevice()
p315
aVjava.io.InputStreamReader.close()
p316
aVandroid.app.AlertDialog.Builder.setNeutralButton(java.lang.CharSequence,android.content.DialogInterface.OnClickListener)
p317
aVandroid.hardware.Camera.takePicture(android.hardware.Camera.ShutterCallback,android.hardware.Camera.PictureCallback,android.hardware.Camera.PictureCallback)
p318
aVjava.io.BufferedReader.close()
p319
aVandroid.app.AlertDialog.Builder.setInverseBackgroundForced(boolean)
p320
aVandroid.app.AlertDialog.Builder.Builder(android.content.Context)
p321
aVjavax.crypto.CipherInputStream.CipherInputStream(java.io.InputStream,javax.crypto.Cipher)
p322
aVandroid.hardware.Camera.setZoomChangeListener(android.hardware.Camera.OnZoomChangeListener)
p323
aVjava.io.BufferedReader.reset()
p324
aVjava.io.BufferedWriter.flush()
p325
aVjavax.crypto.CipherInputStream.read(byte[],int,int)
p326
aVjavax.crypto.CipherOutputStream.write(byte[])
p327
aVandroid.bluetooth.BluetoothSocket.getOutputStream()
p328
aVjava.io.BufferedWriter.newLine()
p329
aVjavax.crypto.Cipher.getInstance(java.lang.String,java.lang.String)
p330
aVandroid.hardware.Camera.setPreviewCallback(android.hardware.Camera.PreviewCallback)
p331
aVandroid.app.AlertDialog.Builder.create()
p332
aVandroid.app.AlertDialog.Builder.setMultiChoiceItems(android.database.Cursor,java.lang.String,java.lang.String,android.content.DialogInterface.OnMultiChoiceClickListener)
p333
aVjavax.crypto.Cipher.init(int,java.security.Key,java.security.AlgorithmParameters)
p334
aVandroid.app.AlertDialog.Builder.Builder(android.content.Context,int)
p335
aVandroid.hardware.Camera.addCallbackBuffer(byte[])
p336
aVandroid.hardware.Camera.cancelAutoFocus()
p337
aVandroid.app.AlertDialog.Builder.setOnKeyListener(android.content.DialogInterface.OnKeyListener)
p338
aVjavax.crypto.Cipher.doFinal()
p339
aVandroid.app.AlertDialog.Builder.setMessage(int)
p340
aVandroid.app.AlertDialog.Builder.setMultiChoiceItems(java.lang.CharSequence[],boolean[],android.content.DialogInterface.OnMultiChoiceClickListener)
p341
aVjavax.crypto.CipherInputStream.read(byte[])
p342
aVjava.io.BufferedReader.BufferedReader(java.io.Reader,int)
p343
aVandroid.bluetooth.BluetoothSocket.isConnected()
p344
aVandroid.app.AlertDialog.Builder.setCustomTitle(android.view.View)
p345
aVjavax.crypto.Cipher.getProvider()
p346
aVjava.io.InputStreamReader.read(char[],int,int)
p347
aVjavax.crypto.Cipher.unwrap(byte[],java.lang.String,int)
p348
aVandroid.app.AlertDialog.Builder.setSingleChoiceItems(int,int,android.content.DialogInterface.OnClickListener)
p349
aVjava.io.PrintWriter.PrintWriter(java.io.OutputStream)
p350
aVjavax.crypto.Cipher.update(byte[],int,int)
p351
aVjava.io.InputStreamReader.getEncoding()
p352
aVjava.io.PrintWriter.print(java.lang.String)
p353
aS'DSubTree'
p354
aVandroid.app.AlertDialog.Builder.setView(android.view.View)
p355
aVjavax.crypto.Cipher.doFinal(byte[],int)
p356
aVandroid.hardware.Camera.getNumberOfCameras()
p357
aVjavax.crypto.Cipher.update(byte[],int,int,byte[],int)
p358
aVjava.io.BufferedReader.mark(int)
p359
aVjavax.crypto.Cipher.getInstance(java.lang.String,java.security.Provider)
p360
aVandroid.hardware.Camera.stopFaceDetection()
p361
aVjava.io.PrintWriter.println(java.lang.String)
p362
aVjavax.crypto.Cipher.getIV()
p363
aVjavax.crypto.Cipher.init(int,java.security.Key,java.security.spec.AlgorithmParameterSpec)
p364
aVjava.io.FileReader.FileReader(java.io.File)
p365
aVandroid.hardware.Camera.release()
p366
aVandroid.app.AlertDialog.Builder.setMessage(java.lang.CharSequence)
p367
aVandroid.hardware.Camera.lock()
p368
aVjava.io.PrintWriter.print(int)
p369
aVandroid.app.AlertDialog.Builder.setItems(int,android.content.DialogInterface.OnClickListener)
p370
aVjava.io.PrintWriter.PrintWriter(java.lang.String)
p371
aVjava.io.BufferedReader.read()
p372
aVandroid.hardware.Camera.setOneShotPreviewCallback(android.hardware.Camera.PreviewCallback)
p373
aVjavax.crypto.Cipher.getInstance(java.lang.String)
p374
aVjava.io.BufferedWriter.BufferedWriter(java.io.Writer,int)
p375
aVjavax.crypto.Cipher.doFinal(byte[],int,int,byte[],int)
p376
aVjavax.crypto.CipherInputStream.CipherInputStream(java.io.InputStream)
p377
aVandroid.app.AlertDialog.Builder.setOnCancelListener(android.content.DialogInterface.OnCancelListener)
p378
aVandroid.hardware.Camera.takePicture(android.hardware.Camera.ShutterCallback,android.hardware.Camera.PictureCallback,android.hardware.Camera.PictureCallback,android.hardware.Camera.PictureCallback)
p379
aVjava.io.PrintWriter.flush()
p380
aVjavax.crypto.Cipher.init(int,java.security.Key,java.security.SecureRandom)
p381
aVjava.lang.Throwable.printStackTrace(java.io.PrintStream)
p382
aVandroid.app.AlertDialog.Builder.setNegativeButton(java.lang.CharSequence,android.content.DialogInterface.OnClickListener)
p383
aVjava.io.BufferedReader.BufferedReader(java.io.Reader)
p384
aVandroid.app.AlertDialog.Builder.setNegativeButton(int,android.content.DialogInterface.OnClickListener)
p385
aVjava.lang.Throwable.printStackTrace()
p386
aVandroid.hardware.Camera.autoFocus(android.hardware.Camera.AutoFocusCallback)
p387
aVandroid.app.AlertDialog.Builder.setPositiveButton(java.lang.CharSequence,android.content.DialogInterface.OnClickListener)
p388
aVjava.io.FileWriter.FileWriter(java.io.File)
p389
aS'STOP'
p390
aVjavax.crypto.Cipher.wrap(java.security.Key)
p391
aVjava.io.FileWriter.FileWriter(java.lang.String)
p392
aVandroid.app.AlertDialog.Builder.setIcon(int)
p393
aVandroid.hardware.Camera.reconnect()
p394
aVjava.io.BufferedReader.skip(long)
p395
aVjava.io.PrintWriter.write(int)
p396
aVjavax.crypto.CipherInputStream.read()
p397
aVandroid.app.AlertDialog.Builder.setSingleChoiceItems(java.lang.CharSequence[],int,android.content.DialogInterface.OnClickListener)
p398
aVandroid.app.AlertDialog.Builder.setAdapter(android.widget.ListAdapter,android.content.DialogInterface.OnClickListener)
p399
aVjavax.crypto.CipherOutputStream.CipherOutputStream(java.io.OutputStream,javax.crypto.Cipher)
p400
aVandroid.hardware.Camera.unlock()
p401
aVjava.io.BufferedReader.read(char[],int,int)
p402
aVjavax.crypto.Cipher.doFinal(byte[])
p403
aVjava.lang.Throwable.getStackTrace()
p404
aVandroid.app.AlertDialog.Builder.setNeutralButton(int,android.content.DialogInterface.OnClickListener)
p405
aVjava.io.PrintWriter.PrintWriter(java.io.Writer,boolean)
p406
aVjavax.crypto.CipherOutputStream.CipherOutputStream(java.io.OutputStream)
p407
aVjavax.crypto.Cipher.init(int,java.security.Key,java.security.AlgorithmParameters,java.security.SecureRandom)
p408
aVandroid.hardware.Camera.startPreview()
p409
aVandroid.app.AlertDialog.Builder.setOnDismissListener(android.content.DialogInterface.OnDismissListener)
p410
aVandroid.app.AlertDialog.Builder.setIconAttribute(int)
p411
aVjava.lang.Throwable.printStackTrace(java.io.PrintWriter)
p412
aVjava.io.PrintWriter.PrintWriter(java.io.OutputStream,boolean)
p413
aVjava.io.BufferedReader.ready()
p414
aVjava.io.PrintWriter.PrintWriter(java.io.File)
p415
aVjava.io.PrintWriter.println(java.lang.Object)
p416
aS'DLoop'
p417
aVjavax.crypto.CipherOutputStream.close()
p418
aVandroid.app.AlertDialog.Builder.setPositiveButton(int,android.content.DialogInterface.OnClickListener)
p419
aVjavax.crypto.Cipher.getBlockSize()
p420
aVandroid.hardware.Camera.startSmoothZoom(int)
p421
aVjavax.crypto.Cipher.getOutputSize(int)
p422
aVandroid.hardware.Camera.setPreviewCallbackWithBuffer(android.hardware.Camera.PreviewCallback)
p423
aVandroid.app.AlertDialog.Builder.setItems(java.lang.CharSequence[],android.content.DialogInterface.OnClickListener)
p424
aVandroid.hardware.Camera.setErrorCallback(android.hardware.Camera.ErrorCallback)
p425
aVjavax.crypto.Cipher.getParameters()
p426
aVjava.io.InputStreamReader.InputStreamReader(java.io.InputStream)
p427
aVjavax.crypto.CipherOutputStream.flush()
p428
aVjava.io.PrintWriter.println(boolean)
p429
aVandroid.hardware.Camera.startFaceDetection()
p430
aVjava.io.InputStreamReader.InputStreamReader(java.io.InputStream,java.lang.String)
p431
aVandroid.app.AlertDialog.Builder.setTitle(int)
p432
aVjavax.crypto.Cipher.doFinal(byte[],int,int,byte[])
p433
aVandroid.app.AlertDialog.Builder.setSingleChoiceItems(android.widget.ListAdapter,int,android.content.DialogInterface.OnClickListener)
p434
aVjavax.crypto.CipherOutputStream.write(byte[],int,int)
p435
aVjava.io.PrintWriter.printf(java.lang.String,java.lang.Object[])
p436
aVandroid.hardware.Camera.setDisplayOrientation(int)
p437
aVjava.io.PrintWriter.print(char[])
p438
aVjava.io.InputStreamReader.read()
p439
aVjava.io.PrintWriter.write(java.lang.String)
p440
aS'DExcept'
p441
aVjava.io.PrintWriter.checkError()
p442
aVjava.io.InputStreamReader.InputStreamReader(java.io.InputStream,java.nio.charset.Charset)
p443
aVjava.lang.Throwable.getCause()
p444
aVjavax.crypto.CipherInputStream.close()
p445
aVandroid.hardware.Camera.stopSmoothZoom()
p446
aVjava.lang.Throwable.getLocalizedMessage()
p447
aVandroid.hardware.Camera.open(int)
p448
aVandroid.hardware.Camera.setPreviewTexture(android.graphics.SurfaceTexture)
p449
aVjava.lang.Throwable.getMessage()
p450
aVjava.io.BufferedWriter.write(char[],int,int)
p451
aVjava.io.PrintWriter.close()
p452
aVandroid.app.AlertDialog.Builder.show()
p453
aVjava.io.FileReader.FileReader(java.lang.String)
p454
aVjava.io.FileWriter.FileWriter(java.io.File,boolean)
p455
aVjavax.crypto.Cipher.doFinal(byte[],int,int)
p456
aVandroid.app.AlertDialog.Builder.setCancelable(boolean)
p457
aVandroid.hardware.Camera.getParameters()
p458
aVandroid.hardware.Camera.setParameters(android.hardware.Camera.Parameters)
p459
aVjava.io.FileWriter.FileWriter(java.lang.String,boolean)
p460
aVandroid.hardware.Camera.stopPreview()
p461
aVjava.io.BufferedWriter.write(java.lang.String,int,int)
p462
aVjava.io.PrintWriter.write(char[])
p463
aVandroid.app.AlertDialog.Builder.setMultiChoiceItems(int,boolean[],android.content.DialogInterface.OnMultiChoiceClickListener)
p464
aVjava.io.BufferedWriter.close()
p465
aVjava.io.BufferedReader.readLine()
p466
aVjavax.crypto.Cipher.update(byte[])
p467
aVjava.io.BufferedReader.markSupported()
p468
aVjava.io.PrintWriter.PrintWriter(java.io.Writer)
p469
aVandroid.hardware.Camera.setFaceDetectionListener(android.hardware.Camera.FaceDetectionListener)
p470
a(dp471
g294
I1
sg295
I2
sg296
I3
sg297
I4
sg298
I5
sg299
I6
sg300
I7
sg443
I150
sg301
I8
sg302
I9
sg303
I10
sg304
I11
sg305
I12
sg306
I13
sg307
I14
sg308
I15
sg309
I16
sg310
I17
sg311
I18
sg440
I147
sg312
I19
sg313
I20
sg314
I21
sg315
I22
sg316
I23
sg317
I24
sg390
I97
sg319
I26
sg320
I27
sg321
I28
sg322
I29
sg323
I30
sg324
I31
sg325
I32
sg326
I33
sg328
I35
sg387
I94
sg329
I36
sg330
I37
sg331
I38
sg332
I39
sg333
I40
sg334
I41
sg335
I42
sg447
I154
sg338
I45
sg376
I83
sg345
I52
sg341
I48
sg343
I50
sg344
I51
sg346
I53
sg347
I54
sg348
I55
sg349
I56
sg350
I57
sg351
I58
sg352
I59
sg353
I60
sg399
I106
sg327
I34
sg339
I46
sg355
I62
sg356
I63
sg357
I64
sg358
I65
sg359
I66
sg360
I67
sg362
I69
sg363
I70
sg364
I71
sg365
I72
sg366
I73
sg367
I74
sg426
I133
sg396
I103
sg370
I77
sg372
I79
sg454
I161
sg374
I81
sg455
I162
sg337
I44
sg377
I84
sg378
I85
sg379
I86
sg380
I87
sg456
I163
sg382
I89
sg383
I90
sg384
I91
sg340
I47
sg342
I49
sg388
I95
sg389
I96
sg318
I25
sg392
I99
sg393
I100
sg394
I101
sg395
I102
sg1
I0
sg369
I76
sg458
I165
sg397
I104
sg400
I107
sg391
I98
sg398
I105
sg371
I78
sg402
I109
sg403
I110
sg404
I111
sg405
I112
sg406
I113
sg407
I114
sg408
I115
sg409
I116
sg410
I117
sg411
I118
sg412
I119
sg413
I120
sg414
I121
sg415
I122
sg416
I123
sg417
I124
sg418
I125
sg419
I126
sg420
I127
sg421
I128
sg422
I129
sg423
I130
sg424
I131
sg425
I132
sg368
I75
sg427
I134
sg428
I135
sg429
I136
sg430
I137
sg431
I138
sg432
I139
sg433
I140
sg434
I141
sg435
I142
sg436
I143
sg437
I144
sg438
I145
sg439
I146
sg361
I68
sg441
I148
sg442
I149
sg354
I61
sg444
I151
sg445
I152
sg446
I153
sg336
I43
sg448
I155
sg449
I156
sg450
I157
sg459
I166
sg451
I158
sg385
I92
sg453
I160
sg373
I80
sg375
I82
sg381
I88
sg457
I164
sg452
I159
sg386
I93
sg460
I167
sg461
I168
sg462
I169
sg463
I170
sg464
I171
sg465
I172
sg466
I173
sg467
I174
sg401
I108
sg468
I175
sg469
I176
sg470
I177
stp472
.