ccopy_reg
_reconstructor
p0
(cargparse
Namespace
p1
c__builtin__
object
p2
Ntp3
Rp4
(dp5
S'input_vocab_seqs_size'
p6
I173
sS'num_epochs'
p7
I500
sS'num_batches'
p8
I358
sS'init_from'
p9
NsS'max_keywords'
p10
I16
sS'latent_size'
p11
I8
sS'target_vocab_size'
p12
I178
sS'cell'
p13
S'lstm'
p14
sS'max_seqs'
p15
I16
sS'seqs_rnn_units'
p16
I8
sS'input_file'
p17
(lp18
S'data/DATA-training.json'
p19
asS'learning_rate'
p20
F0.002
sS'batch_size'
p21
I50
sS'print_every'
p22
I1
sS'kw_weight'
p23
I200
sS'decoder_rnn_units'
p24
I128
sS'max_ast_depth'
p25
I20
sS'max_seq_length'
p26
I10
sS'weight_loss'
p27
I1000
sS'input_vocab_kws_size'
p28
I117
sS'save_dir'
p29
S'save'
p30
sS'kw_ffnn_units'
p31
I8
sb.